; Function Attrs: mustprogress nofree norecurse nosync nounwind willreturn memory(argmem: read) uwtable
define hidden noundef zeroext i1 @_ZNK6Assimp11MDLImporter10IsPosValidEPKv(ptr nocapture noundef nonnull readonly align 8 dereferenceable(158) %this, ptr noundef readnone %szPos) local_unnamed_addr #9 align 2 {
entry:
  %tobool.not = icmp eq ptr %szPos, null
  br i1 %tobool.not, label %land.end, label %land.lhs.true

land.lhs.true:                                    ; preds = %entry
  %mBuffer = getelementptr inbounds i8, ptr %this, i64 112
  %0 = load ptr, ptr %mBuffer, align 8
  %iFileSize = getelementptr inbounds i8, ptr %this, i64 144
  %1 = load i32, ptr %iFileSize, align 8
  %idx.ext = zext i32 %1 to i64
  %add.ptr = getelementptr inbounds i8, ptr %0, i64 %idx.ext
  %cmp.not = icmp uge ptr %add.ptr, %szPos
  %cmp3 = icmp ule ptr %0, %szPos
  %spec.select = and i1 %cmp3, %cmp.not
  br label %land.end

land.end:                                         ; preds = %land.lhs.true, %entry
  %2 = phi i1 [ false, %entry ], [ %spec.select, %land.lhs.true ]
  ret i1 %2
}